Certificate:
    Data:
        Version: 3 (0x2)
        Serial Number: 1 (0x1)
    Signature Algorithm: sha256WithRSAEncryption
        Issuer: C=US, ST=California, L=San Francisco, O=Anderson, Karl, OU=self-sign, CN=andersonkarl.net
        Validity
            Not Before: Aug 23 02:35:47 2015 GMT
            Not After : Aug 22 02:35:47 2016 GMT
        Subject: C=US, ST=California, L=San Francisco, O=andersonkarl.net, OU=fs-1.6, CN=video.andersonkarl.net
        Subject Public Key Info:
            Public Key Algorithm: rsaEncryption
                Public-Key: (4096 bit)
                Modulus:
                    00:a9:cd:d0:fc:20:18:92:22:d1:ae:ed:e2:6e:84:
                    ac:38:c7:b6:02:fc:ae:44:6e:4e:f5:69:bf:94:70:
                    03:25:f3:a5:e6:b1:5c:5c:ec:d9:df:76:6b:ab:22:
                    8f:89:db:7a:b2:60:0a:d0:c5:25:53:05:73:05:e5:
                    f9:28:36:b6:7e:f5:0b:aa:53:25:ac:7a:3b:7b:13:
                    23:6a:f6:3f:bd:01:44:43:40:5a:01:58:de:bf:37:
                    14:0a:d3:d2:74:de:d2:88:39:10:31:1b:a0:10:47:
                    5b:c1:6f:48:d3:a1:ce:1a:07:89:76:55:db:d5:3a:
                    fe:09:ee:1b:81:ab:8f:f8:d9:02:5c:ee:09:1a:33:
                    2f:92:0c:c3:4a:df:dd:fb:68:b6:65:28:2d:39:ba:
                    02:a6:fd:d8:82:6e:f1:31:44:56:76:3d:2e:7c:da:
                    f3:c7:2e:4e:82:03:52:01:ed:98:14:a7:e7:21:f5:
                    1c:29:77:49:1a:73:49:7b:76:3a:1b:0e:14:c7:1a:
                    4e:c4:18:13:46:7a:96:a1:a4:11:4f:2a:6d:3f:cf:
                    90:31:c6:1c:a0:6a:e4:46:55:91:e7:d5:a1:ce:f4:
                    2e:6e:5f:f5:10:a4:21:21:ad:41:2b:4b:19:d7:e3:
                    ca:8b:6f:9f:24:0b:7a:43:72:d8:28:d0:a3:67:ad:
                    e9:b8:22:53:3b:0f:a9:6c:2f:4f:48:61:1e:4f:d0:
                    7e:a1:46:fd:66:29:bb:ac:be:6d:9e:76:60:c9:a7:
                    61:fc:2e:f0:56:6b:d1:8e:1b:43:7c:95:00:fb:e0:
                    c5:13:77:ed:18:e5:80:68:db:8b:5f:9a:6b:e6:6f:
                    f9:6d:81:ed:a2:f0:21:9a:46:8d:3e:d4:db:9b:3d:
                    76:15:ba:e1:90:b2:3d:25:8c:00:be:22:d4:7a:47:
                    5b:c9:80:12:d4:d2:18:ed:00:58:cc:e1:5c:f7:d8:
                    66:fc:f7:8f:34:a5:c1:01:a4:b8:74:8b:3f:c2:dc:
                    f0:20:65:95:b6:c8:4d:a7:96:6c:a7:5a:59:b0:59:
                    58:79:79:11:09:b8:ca:ac:04:bb:7a:38:63:e2:f7:
                    73:b4:b1:0b:d3:dc:8e:7e:77:8f:af:5b:90:00:e6:
                    29:d8:1e:45:64:19:25:66:3c:6b:8b:49:15:a0:64:
                    ae:6b:6e:4e:cc:38:16:1e:64:64:37:15:9e:28:5d:
                    c7:72:45:a5:57:7b:ea:f3:3c:05:fe:eb:b5:7b:7b:
                    61:18:c5:33:1a:08:0c:79:b4:71:85:9b:09:78:0b:
                    6c:e7:99:2d:b9:47:e8:64:7e:55:25:3b:3b:22:80:
                    a2:c9:7c:09:54:f1:d5:9b:3f:fc:1c:9a:b1:d1:b9:
                    d4:98:4f
                Exponent: 65537 (0x10001)
        X509v3 extensions:
            X509v3 Authority Key Identifier: 
                keyid:EC:D6:6F:C7:81:A3:70:A9:F4:96:03:E8:26:DB:FB:C7:9C:10:95:32

            X509v3 Extended Key Usage: 
                TLS Web Server Authentication, TLS Web Client Authentication, Microsoft Server Gated Crypto, Netscape Server Gated Crypto
            X509v3 Basic Constraints: critical
                CA:FALSE
    Signature Algorithm: sha256WithRSAEncryption
         5e:7d:6d:ce:3b:a3:2b:a6:3b:bd:b5:6e:56:cf:34:c5:6f:90:
         a9:c2:8c:60:bc:f6:01:55:91:d6:60:17:2b:8e:7b:fa:9c:48:
         4e:7a:b8:65:26:88:fa:73:cb:42:46:8d:27:85:64:6e:a8:7b:
         1f:76:1b:00:26:30:d1:2c:00:a2:f4:83:19:1f:15:68:f1:8f:
         f9:a7:46:a0:02:dc:ee:d7:d7:71:81:26:70:da:8d:d2:9b:32:
         4e:f4:f9:87:20:da:3c:47:00:72:be:38:f0:3a:8e:07:29:64:
         6c:e4:06:7f:15:be:21:69:6f:2f:0d:3c:70:47:86:0a:37:f4:
         97:58:72:7c:7d:de:7d:c0:cd:48:8d:45:51:5c:49:58:95:79:
         32:77:26:2a:33:8f:40:84:cc:20:c0:bc:d5:68:fe:3a:7b:59:
         c4:47:18:84:b4:f7:d3:1e:22:04:1c:75:76:d0:db:41:d3:21:
         a0:f8:20:e4:0d:46:99:58:cd:57:b4:da:34:27:e8:81:12:d3:
         aa:92:16:35:19:72:28:65:9f:27:80:33:18:f3:3e:3a:97:a7:
         cc:c7:ec:fd:2f:9f:71:64:ba:c0:de:ac:93:bc:00:b9:2b:83:
         7a:e6:f9:9f:c3:5f:e1:27:3d:48:57:05:f0:cc:1f:70:2f:62:
         38:7d:5e:04:54:32:5e:5d:02:50:40:06:81:ec:92:e2:b0:f2:
         8e:68:26:d9:13:dd:f0:56:28:2f:25:33:43:73:c1:e6:ae:fe:
         15:69:ad:f4:68:b0:22:a8:75:21:ba:c4:e8:37:ac:9f:1a:86:
         e0:84:51:43:22:a6:e5:11:24:52:f4:0b:68:3a:c6:da:53:2c:
         e5:24:63:b6:f9:aa:8f:88:6f:9f:3b:c8:94:2b:38:71:4f:68:
         37:9b:e6:46:61:6e:ee:f0:ab:df:09:63:4d:55:0a:f2:84:d8:
         a3:f4:1c:ae:5b:7b:50:75:bf:fc:33:a7:57:b9:eb:60:87:45:
         3b:c4:65:df:9a:41:c3:3c:dd:98:d9:e5:99:ed:79:2e:3a:a9:
         97:aa:ae:36:1e:5b:22:23:61:37:25:fd:74:e6:ad:59:c5:d8:
         e0:fc:22:26:9b:81:80:fd:9e:18:c0:9a:ac:da:e3:f6:1f:d9:
         2a:ac:21:64:67:cc:70:a9:c3:e3:b7:24:90:f9:9a:3d:91:a7:
         c2:74:bb:cc:41:9b:5d:cf:8f:6b:e3:48:aa:68:4b:3a:db:2a:
         bf:0c:f4:9a:91:73:87:44:86:e6:ae:d7:9c:37:7c:87:8e:70:
         c1:fa:7b:e6:21:9c:22:ba:b9:0c:98:79:7d:02:19:45:2f:3f:
         ad:b1:35:a6:45:85:9b:a5
-----BEGIN CERTIFICATE-----
MIIF7TCCA9WgAwIBAgIBATANBgkqhkiG9w0BAQsFADCBgjELMAkGA1UEBhMCVVMx
EzARBgNVBAgTCkNhbGlmb3JuaWExFjAUBgNVBAcTDVNhbiBGcmFuY2lzY28xFzAV
BgNVBAoTDkFuZGVyc29uLCBLYXJsMRIwEAYDVQQLEwlzZWxmLXNpZ24xGTAXBgNV
BAMTEGFuZGVyc29ua2FybC5uZXQwHhcNMTUwODIzMDIzNTQ3WhcNMTYwODIyMDIz
NTQ3WjCBhzELMAkGA1UEBhMCVVMxEzARBgNVBAgTCkNhbGlmb3JuaWExFjAUBgNV
BAcTDVNhbiBGcmFuY2lzY28xGTAXBgNVBAoTEGFuZGVyc29ua2FybC5uZXQxDzAN
BgNVBAsTBmZzLTEuNjEfMB0GA1UEAxMWdmlkZW8uYW5kZXJzb25rYXJsLm5ldDCC
AiIwDQYJKoZIhvcNAQEBBQADggIPADCCAgoCggIBAKnN0PwgGJIi0a7t4m6ErDjH
tgL8rkRuTvVpv5RwAyXzpeaxXFzs2d92a6sij4nberJgCtDFJVMFcwXl+Sg2tn71
C6pTJax6O3sTI2r2P70BRENAWgFY3r83FArT0nTe0og5EDEboBBHW8FvSNOhzhoH
iXZV29U6/gnuG4Grj/jZAlzuCRozL5IMw0rf3ftotmUoLTm6Aqb92IJu8TFEVnY9
Lnza88cuToIDUgHtmBSn5yH1HCl3SRpzSXt2OhsOFMcaTsQYE0Z6lqGkEU8qbT/P
kDHGHKBq5EZVkefVoc70Lm5f9RCkISGtQStLGdfjyotvnyQLekNy2CjQo2et6bgi
UzsPqWwvT0hhHk/QfqFG/WYpu6y+bZ52YMmnYfwu8FZr0Y4bQ3yVAPvgxRN37Rjl
gGjbi1+aa+Zv+W2B7aLwIZpGjT7U25s9dhW64ZCyPSWMAL4i1HpHW8mAEtTSGO0A
WMzhXPfYZvz3jzSlwQGkuHSLP8Lc8CBllbbITaeWbKdaWbBZWHl5EQm4yqwEu3o4
Y+L3c7SxC9Pcjn53j69bkADmKdgeRWQZJWY8a4tJFaBkrmtuTsw4Fh5kZDcVnihd
x3JFpVd76vM8Bf7rtXt7YRjFMxoIDHm0cYWbCXgLbOeZLblH6GR+VSU7OyKAosl8
CVTx1Zs//ByasdG51JhPAgMBAAGjZzBlMB8GA1UdIwQYMBaAFOzWb8eBo3Cp9JYD
6Cbb+8ecEJUyMDQGA1UdJQQtMCsGCCsGAQUFBwMBBggrBgEFBQcDAgYKKwYBBAGC
NwoDAwYJYIZIAYb4QgQBMAwGA1UdEwEB/wQCMAAwDQYJKoZIhvcNAQELBQADggIB
AF59bc47oyumO721blbPNMVvkKnCjGC89gFVkdZgFyuOe/qcSE56uGUmiPpzy0JG
jSeFZG6oex92GwAmMNEsAKL0gxkfFWjxj/mnRqAC3O7X13GBJnDajdKbMk70+Ycg
2jxHAHK+OPA6jgcpZGzkBn8VviFpby8NPHBHhgo39JdYcnx93n3AzUiNRVFcSViV
eTJ3Jiozj0CEzCDAvNVo/jp7WcRHGIS099MeIgQcdXbQ20HTIaD4IOQNRplYzVe0
2jQn6IES06qSFjUZcihlnyeAMxjzPjqXp8zH7P0vn3FkusDerJO8ALkrg3rm+Z/D
X+EnPUhXBfDMH3AvYjh9XgRUMl5dAlBABoHskuKw8o5oJtkT3fBWKC8lM0Nzweau
/hVprfRosCKodSG6xOg3rJ8ahuCEUUMipuURJFL0C2g6xtpTLOUkY7b5qo+Ib587
yJQrOHFPaDeb5kZhbu7wq98JY01VCvKE2KP0HK5be1B1v/wzp1e562CHRTvEZd+a
QcM83ZjZ5ZnteS46qZeqrjYeWyIjYTcl/XTmrVnF2OD8IiabgYD9nhjAmqza4/Yf
2SqsIWRnzHCpw+O3JJD5mj2Rp8J0u8xBm13Pj2vjSKpoSzrbKr8M9JqRc4dEhuau
15w3fIeOcMH6e+YhnCK6uQyYeX0CGUUvP62xNaZFhZul
-----END CERTIFICATE-----
-----BEGIN RSA PRIVATE KEY-----
MIIJKQIBAAKCAgEAqc3Q/CAYkiLRru3iboSsOMe2AvyuRG5O9Wm/lHADJfOl5rFc
XOzZ33ZrqyKPidt6smAK0MUlUwVzBeX5KDa2fvULqlMlrHo7exMjavY/vQFEQ0Ba
AVjevzcUCtPSdN7SiDkQMRugEEdbwW9I06HOGgeJdlXb1Tr+Ce4bgauP+NkCXO4J
GjMvkgzDSt/d+2i2ZSgtOboCpv3Ygm7xMURWdj0ufNrzxy5OggNSAe2YFKfnIfUc
KXdJGnNJe3Y6Gw4UxxpOxBgTRnqWoaQRTyptP8+QMcYcoGrkRlWR59WhzvQubl/1
EKQhIa1BK0sZ1+PKi2+fJAt6Q3LYKNCjZ63puCJTOw+pbC9PSGEeT9B+oUb9Zim7
rL5tnnZgyadh/C7wVmvRjhtDfJUA++DFE3ftGOWAaNuLX5pr5m/5bYHtovAhmkaN
PtTbmz12FbrhkLI9JYwAviLUekdbyYAS1NIY7QBYzOFc99hm/PePNKXBAaS4dIs/
wtzwIGWVtshNp5Zsp1pZsFlYeXkRCbjKrAS7ejhj4vdztLEL09yOfnePr1uQAOYp
2B5FZBklZjxri0kVoGSua25OzDgWHmRkNxWeKF3HckWlV3vq8zwF/uu1e3thGMUz
GggMebRxhZsJeAts55ktuUfoZH5VJTs7IoCiyXwJVPHVmz/8HJqx0bnUmE8CAwEA
AQKCAgBoGjGc0USfG0+4Ukl2/knjybSx4h4pAAPSe5GjvISBmP3GEEiTA/aTBLP/
yIF9wBxaDX2z/pniaz3YiOSXHewGq88KDk3Tj2C2FMarBeuPwZ4LKQHFP6nYSzkz
Zifp1M34DBv8L3aTZFxBnCtm7BVCagqBjSPod3FVvzAH8Jmks866EIluEaGBheeZ
GOSsBMeF/vqzIHIN1SUO2ltum/nyJZJBo66/F4m0NbrqSbLqPwH6FJ6+YU5lM/cC
BTqcaaadZmiR2jy/AdsloEOoaFdwPp2lllLomn/3CvEX1CaOja+FpbjGCgnx7pk8
pJ9kd1gu4jEL1SmQ/nC9nSQBJWNaq6b9DPz41yDoOtP0pyg/5xZzwiVjX3zvlhvA
h82GU5kS/C6jX1gn4c8Co8Hj7OpmWPhCvaQUw1BvLl0hpYj4wZNAVVYbq/Vtvf09
uLylIzI4ZbtsJq9qnwbXKpMMLW8+wZWiwHKZlqnpWrzJFmyqhfRnHkXblHvc5emW
RWgFw/acXRK8XLV51B0+ijlvHlxECNcqYwD54t1p5Z61sAlfAGZGELBmRAupbpEX
ujIvEJ9C67jYLO03xlnxG0CepJUf5DWtSUBk37WgufwT+Rw7pujrKdqAopqyftTM
h3Cx187oCZOb2M5V+vmJmsRyUGrBcYcg6iBggwOlelsBY0dwQQKCAQEA1HcgCIjD
X4uPGb0CA20DptiI0LNbVZoLOnDHtRRMIwbbRlTtnAOSdhMzGbmLSu0tpgQy+Rrv
ma91+gfnN+aTnAc4P4pftRyBGqhDYrzpw83ofgV4Ohu+Kf3Al8yZIBczvbOQmqSe
iwnNFE1JweGKbif4RAqPuEw0h1lflJJXipOdZMhI3UuIXSfGDA1wqsglnAT4FfSG
llsnmmJ/soI1MIX++clViIi2y9qwT7vXpSC3GC1X4J2KJw9BN2blFHqhpPKO/EEX
1CWZX1kuBTwiWTCt87TniADFUNtkzqxgAp2h33+7ObrTJmOo73jSjcoOWlZiRip9
TYiV8EbqkY3l7wKCAQEAzJjjZgY86ooFcf3NvwUygyhofaron/G5e10QdQvJXBNW
hyHcj6pmVu20eRsKyuIRHIO8r8y9GgrZnFRlsdwZ+MfNepFtXFUTeZ86k1uBSITK
Gbzyq9hFkGHp7tEGXomdEU1Z9EBv7PkUAIBxKvrz3goXWXf5Udfb+qL/MvpdI8h4
kFzWMVVJYdm9PwJ0s9MDBfOQF6o1G4d9NhGLkYhM1iGCS9tt2wpHVMgHkSQwoZP6
efqgOyQS/YaGy9a93BVsUqK8FVhOxJK9USjrjQ/GLj8pEOd1Hqlq3XO2opJWrpqO
P7ZoDH6otlCBlrTeMWUiTAVq6wStSlHHjYuYwR3ToQKCAQAmQgEhqEbN+Jpe/xrS
tRmYPJt+QR2sL13gOxiq8am4EO8BHh/fHQGNg22LL072wfibUVxAYOpOGTs8N5oa
BcoEqYQmZOtQ+H4C59OifvP1DynTL3bzt7UpaIj6jJvyHFtzyFa8kfH+hVhJVJV4
dP1xUn8w+VnhzM8UpDJC1Ysv597KnAoK1yQJ6jSOTQlBp2KmUnq9sVde0bEy6pOl
+C5Nu4MrRWbCfCO2V32yDdgJ4vc1Qkz1pEiROfz7VergIijjQ84dfDcnO1H/ylYw
GSDyQILCRIwAgGsHYUoosP9k2S+hyCVVgt+spPtxi6cWYxDskWuGyPXhNTwSlSJ9
7Tg/AoIBAQCkYaY6f4KL8k7DsmaPNi7KYDnr1dhHQaCD9FbXo5upxcO8mMEsEH1f
FGbu8oIuVYnn/hQorve0J8mFJ+35A90+G9IEyzkxeQ1Hp14ZrOhnioESQtQ6q23g
vjqE7R4P8MLodtxyOR90Jv8iFBBYtv4ehL8T3CfN0P/mFPWzUKJqsJPlcSGKy3pF
CvtY17FKFZyVOIap7M/0iVxZh6k6SWdql8unBOrzlQOQo5Io1AnamBkjzfDU83vq
hB5jQeqTHAdHMYaqI6RNnZRL0/PFB0p0N7zX3w8jjnzU5jZz0d2hNX5axEQ+3bjR
mkcz/aeTyizPJX8syjosvx30pJcbecphAoIBAQCEgxFTMCKNmGXWb5BUJyGwuzAW
x7OM/5udFxSxSnCSZMhkbLp/6Dw3YEjOwjUJ9Dx/22CCkCG+COgumYbFLeN+SLjK
oUgz0HzbIi2ESFwGEvPvR23xXKxPr91PiEQPIFvnfmUdXrg7bM3kzL7iHLD39hlc
5zr+cUJHdoRFt47IlKL0i88mwFXq+KTOCHgWvW3x6hVm108MbNNisegdYyanb1sM
7deA57LoV+af2YF3gHKSpsrmddQIb+b5EtW1l3/OXB5evacfiTJWw69833jBDfKq
zjd382kNwFSkXN5fjkAu2BrQhhU5JqXanuq+Dwd0EZnpO6uGn3vFjUtWj1Rq
-----END RSA PRIVATE KEY-----
